-----BEGIN PRIVATE KEY-----
MIIEvQIBADANBgkqhkiG9w0BAQEFAASCBKcwggSjAgEAAoIBAQDIeL8K5+snIuCX
vNOC91uhLAbb6zr0JInMCDWrhuZ1i6fWgOcr0pSl4wjPgh7rvzQ8xklXJGQ0PF3l
Z0N1GBcoeFBVbeyliYg/qPnXZ+NAjEJuoldO7Y+2UKWTc8GxMWOloay8+0ltHsKL
oavOIN2yP2zbDLXJYdXjRkcPowsJ+0XFCQrr0SK3rSNCnPIauUlR6bZ878czhsUF
vDv25OR5uwxs/UJFEO66TXkIoKTEkRbbMNA51hHx1Bk3xVk8GcrZXTZBhQ5oLKqo
IqQwoRfVC80se2rxQd+WwQJBogNiVXqELbs/FhLAPaLqM0MiRnk3mMQVE9aParpu
vRdYLD3hAgMBAAECggEAXxR9r4N9kUtGcFE7lBMTn2aNPkLb7C1kOaPvKJJLvZZm
HSN4AN3YaLE8XYbeeXtvIB//atg0ul2jPwlyAhhR63zcxRfktEJ9n4vaK2L3cobT
fzt541Ji5dpsHXo6dHrzQvxiPCOGmL2NEcK1BIer/j18uIvXsFK5qhiL3Yu70ZhG
bmjCU8PZijJQOSHmGlEcQ8e9YT+aTKITpo53wFE+LUZ3veZ2eu02IirStWvGG2zB
brKRK54sgzHTnn0GgdOxWC0k//xHexRT6dlbhfAfPBdgy8ZYv44lHpR4BAp083/u
NaFLhL0GXu13xtulAa+oK7PghkWKO2QRd1ihp467XQKBgQD6dbsuE++m9adatbs5
lBUvGoQfABHZOglxkhUl5TNFOhLFmmMXO0YdEfoCb6vDmw9BOq63uk0J2WIpU6J/
cbK9SaOtHrAwnCOibq5C+iWcqDmx7z8vMoDHa8G6XKTm0U69Ney2pu3+dZjxeBGK
DtyZfs4em62MLNxeQUZF7EzGEwKBgQDM5/LoA+acqQ95Rme4A3bbcUE6eoL1U8+R
h5U2JnC+L+WC4odreT6ZsNFV1SZMrGUf+lzzziMPeuuXvyrn1ZGl8fnytmK4Osc+
L3IULdAQRzIU41JRbFImVg73LWdyYtkU13Y4q588rFLjI6W0yDrSn6WKkOFCIhDN
oBFEm9P6uwKBgASueK42zy72vocSiIpd+ztjKn8N2EeQLycBTQXlT90GZd1tslZ3
1Cqs8FhlT/ebCWD1wNhMUi5R8uTE3G+3Z1jkbHvK7A4sjPn3SaiU1mkkN9fcmfi+
3+taV0etfaOW2/rrbB5J5n7wIci5rtI+zt7LoPyvekH5gLD+VVrvPMwjAoGAM5tv
qFPjLy29QfQjh0sIEnjRzuKwPQ2gx6x4Pi0sVBpIGdDn/n+I7riD4LRQcxswVP9/
jcArQGjbEVsKeV1m037ATwr0jiXvrI/SkZaAQrlLucsPHobDofgmyMZcuYh/2Cn0
Eo3XCzbzoVWHFKMhfY7L6LxYn4lo5gEcmEUO/KUCgYEA8m9QPZ8Ucg04yMwWTMAa
YDT7oKe8LIuL1x0r/E7cOwMzJymfX2QWrqlzcdpmL82eys4gwoCxBtrkU4KqhDtI
ZXvuAcpq4cUtP84OSEBNzU7NH9JpYbkZVQBik+egOMZhPHdX0s3mv3CFkJLczN52
7lg/x6EMqveCdcTC6c0HZLw=
-----END PRIVATE KEY-----
Certificate:
    Data:
        Version: 1 (0x0)
        Serial Number: 56 (0x38)
    Signature Algorithm: sha256WithRSAEncryption
        Issuer: O=CONVERMAX CORP./emailAddress=admin@convermax.com, L=Las Vegas, ST=Nevada, C=US, CN=convermax.com
        Validity
            Not Before: Jun  4 14:09:34 2018 GMT
            Not After : Jun  4 14:09:34 2019 GMT
        Subject: C=US, ST=Texas, O=The 4x4 Guys, CN=the4x4guys.com
        Subject Public Key Info:
            Public Key Algorithm: rsaEncryption
                Public-Key: (2048 bit)
                Modulus:
                    00:c8:78:bf:0a:e7:eb:27:22:e0:97:bc:d3:82:f7:
                    5b:a1:2c:06:db:eb:3a:f4:24:89:cc:08:35:ab:86:
                    e6:75:8b:a7:d6:80:e7:2b:d2:94:a5:e3:08:cf:82:
                    1e:eb:bf:34:3c:c6:49:57:24:64:34:3c:5d:e5:67:
                    43:75:18:17:28:78:50:55:6d:ec:a5:89:88:3f:a8:
                    f9:d7:67:e3:40:8c:42:6e:a2:57:4e:ed:8f:b6:50:
                    a5:93:73:c1:b1:31:63:a5:a1:ac:bc:fb:49:6d:1e:
                    c2:8b:a1:ab:ce:20:dd:b2:3f:6c:db:0c:b5:c9:61:
                    d5:e3:46:47:0f:a3:0b:09:fb:45:c5:09:0a:eb:d1:
                    22:b7:ad:23:42:9c:f2:1a:b9:49:51:e9:b6:7c:ef:
                    c7:33:86:c5:05:bc:3b:f6:e4:e4:79:bb:0c:6c:fd:
                    42:45:10:ee:ba:4d:79:08:a0:a4:c4:91:16:db:30:
                    d0:39:d6:11:f1:d4:19:37:c5:59:3c:19:ca:d9:5d:
                    36:41:85:0e:68:2c:aa:a8:22:a4:30:a1:17:d5:0b:
                    cd:2c:7b:6a:f1:41:df:96:c1:02:41:a2:03:62:55:
                    7a:84:2d:bb:3f:16:12:c0:3d:a2:ea:33:43:22:46:
                    79:37:98:c4:15:13:d6:8f:6a:ba:6e:bd:17:58:2c:
                    3d:e1
                Exponent: 65537 (0x10001)
    Signature Algorithm: sha256WithRSAEncryption
         a6:1e:2f:41:4b:6b:71:9b:e7:cb:f6:ec:73:cd:0b:b1:2f:5f:
         39:b1:b8:c9:50:1c:08:3c:eb:e9:3a:e3:c0:af:d5:d1:6c:2a:
         1b:8c:fc:ee:09:af:14:42:dc:e1:d9:c8:e8:fc:be:3f:e1:63:
         dd:74:48:85:bc:f9:1e:af:00:c9:96:a9:6d:74:c3:cd:32:e4:
         d7:a8:64:3d:ab:d8:25:86:c3:6a:1e:04:89:44:01:1a:7a:23:
         72:aa:d0:d4:5e:8f:41:65:d7:bc:28:d3:0c:db:97:12:9c:f7:
         46:8c:e7:22:b9:7d:44:20:32:0b:6f:6d:89:56:7e:49:7f:76:
         b9:09:89:84:49:02:02:8a:b6:36:6a:ea:c5:e3:8b:14:48:0e:
         3a:fb:23:f3:41:30:04:ea:d1:92:29:6e:5a:3a:88:ed:de:7d:
         b2:fb:4f:7b:b7:28:4f:ed:4c:eb:5d:21:05:81:38:a5:9d:a0:
         a8:89:45:7f:ff:30:36:b8:65:32:26:a1:f0:14:c6:d9:f1:49:
         35:d7:66:0d:c8:63:4a:47:e4:9f:07:7a:ed:ab:22:a4:bd:fc:
         68:09:07:70:89:db:98:f0:05:fd:c1:aa:40:1b:f2:af:2a:55:
         f4:5e:53:b3:b6:e0:80:99:6d:8b:4f:99:21:4a:19:80:7e:e4:
         f7:b2:d6:2f
-----BEGIN CERTIFICATE-----
MIIDSjCCAjICATgwDQYJKoZIhvcNAQELBQAwgYgxGDAWBgNVBAoTD0NPTlZFUk1B
WCBDT1JQLjEiMCAGCSqGSIb3DQEJARYTYWRtaW5AY29udmVybWF4LmNvbTESMBAG
A1UEBxMJTGFzIFZlZ2FzMQ8wDQYDVQQIEwZOZXZhZGExCzAJBgNVBAYTAlVTMRYw
FAYDVQQDEw1jb252ZXJtYXguY29tMB4XDTE4MDYwNDE0MDkzNFoXDTE5MDYwNDE0
MDkzNFowTTELMAkGA1UEBhMCVVMxDjAMBgNVBAgTBVRleGFzMRUwEwYDVQQKEwxU
aGUgNHg0IEd1eXMxFzAVBgNVBAMTDnRoZTR4NGd1eXMuY29tMIIBIjANBgkqhkiG
9w0BAQEFAAOCAQ8AMIIBCgKCAQEAyHi/CufrJyLgl7zTgvdboSwG2+s69CSJzAg1
q4bmdYun1oDnK9KUpeMIz4Ie6780PMZJVyRkNDxd5WdDdRgXKHhQVW3spYmIP6j5
12fjQIxCbqJXTu2PtlClk3PBsTFjpaGsvPtJbR7Ci6GrziDdsj9s2wy1yWHV40ZH
D6MLCftFxQkK69Eit60jQpzyGrlJUem2fO/HM4bFBbw79uTkebsMbP1CRRDuuk15
CKCkxJEW2zDQOdYR8dQZN8VZPBnK2V02QYUOaCyqqCKkMKEX1QvNLHtq8UHflsEC
QaIDYlV6hC27PxYSwD2i6jNDIkZ5N5jEFRPWj2q6br0XWCw94QIDAQABMA0GCSqG
SIb3DQEBCwUAA4IBAQCmHi9BS2txm+fL9uxzzQuxL185sbjJUBwIPOvpOuPAr9XR
bCobjPzuCa8UQtzh2cjo/L4/4WPddEiFvPkerwDJlqltdMPNMuTXqGQ9q9glhsNq
HgSJRAEaeiNyqtDUXo9BZde8KNMM25cSnPdGjOciuX1EIDILb22JVn5Jf3a5CYmE
SQICirY2aurF44sUSA46+yPzQTAE6tGSKW5aOojt3n2y+097tyhP7UzrXSEFgTil
naCoiUV//zA2uGUyJqHwFMbZ8Uk112YNyGNKR+SfB3rtqyKkvfxoCQdwiduY8AX9
wapAG/KvKlX0XlOztuCAmW2LT5khShmAfuT3stYv
-----END CERTIFICATE-----
